-----BEGIN CERTIFICATE-----
MIICnzCCAgigAwIBAgIGDQcZeWGWMA0GCSqGSIb3DQEBBQUAMCgxEjAQBgNVBAMT
CW1pdG1wcm94eTESMBAGA1UEChMJbWl0bXByb3h5MB4XDTE1MDUyMzIwNTIxMVoX
DTE3MDUxMjIwNTIxMVowKDESMBAGA1UEAxMJbWl0bXByb3h5MRIwEAYDVQQKEwlt
aXRtcHJveHkwgZ8wDQYJKoZIhvcNAQEBBQADgY0AMIGJAoGBAKwjb/HD+a4cz7th
qWrxVzEVBjzthcYNKeO1OMZAMJEMb+Z4uJB7Yf7adaElNWJQSJY1yA9vtHK9dDtT
8eJKfVwI+RwzFiAzMPZFjGa2i/ynnbv+Anqx1uFEH6oDky33vEKc0f5TF2bngt1c
6QY1mdTxxoXUc8bF97uw/7uSteVTAgMBAAGjgdMwgdAwDwYDVR0TAQH/BAUwAwEB
/zAUBglghkgBhvhCAQEBAf8EBAMCAgQwewYDVR0lAQH/BHEwbwYIKwYBBQUHAwEG
CCsGAQUFBwMCBggrBgEFBQcDBAYIKwYBBQUHAwgGCisGAQQBgjcCARUGCisGAQQB
gjcCARYGCisGAQQBgjcKAwEGCisGAQQBgjcKAwMGCisGAQQBgjcKAwQGCWCGSAGG
+EIEATALBgNVHQ8EBAMCAQYwHQYDVR0OBBYEFOAn1dyjCkmDlVXktTBoKskYPovd
MA0GCSqGSIb3DQEBBQUAA4GBAJGebKhw35A9v5caFMmWK5AEFw3arWNS2XiaTcdB
ZoasdXKzgI+UDJ8+Th+taGwUbnpV8oHtJlZuohJCxH6Og9WPeWj8kH/iav9h6t0E
mFVzki1UcfHRwn3soGrRxZL6ShqRgkcWb+IHE3al/Zrie5zmQiSZPOcYCZpZmxua
L2aU
-----END CERTIFICATE-----
Certificate:
    Data:
        Version: 3 (0x2)
        Serial Number: 14324143317398 (0xd0719796196)
    Signature Algorithm: sha1WithRSAEncryption
        Issuer: CN=mitmproxy, O=mitmproxy
        Validity
            Not Before: May 23 20:52:11 2015 GMT
            Not After : May 12 20:52:11 2017 GMT
        Subject: CN=mitmproxy, O=mitmproxy
        Subject Public Key Info:
            Public Key Algorithm: rsaEncryption
                Public-Key: (1024 bit)
                Modulus:
                    00:ac:23:6f:f1:c3:f9:ae:1c:cf:bb:61:a9:6a:f1:
                    57:31:15:06:3c:ed:85:c6:0d:29:e3:b5:38:c6:40:
                    30:91:0c:6f:e6:78:b8:90:7b:61:fe:da:75:a1:25:
                    35:62:50:48:96:35:c8:0f:6f:b4:72:bd:74:3b:53:
                    f1:e2:4a:7d:5c:08:f9:1c:33:16:20:33:30:f6:45:
                    8c:66:b6:8b:fc:a7:9d:bb:fe:02:7a:b1:d6:e1:44:
                    1f:aa:03:93:2d:f7:bc:42:9c:d1:fe:53:17:66:e7:
                    82:dd:5c:e9:06:35:99:d4:f1:c6:85:d4:73:c6:c5:
                    f7:bb:b0:ff:bb:92:b5:e5:53
                Exponent: 65537 (0x10001)
        X509v3 extensions:
            X509v3 Basic Constraints: critical
                CA:TRUE
            Netscape Cert Type: critical
                SSL CA
            X509v3 Extended Key Usage: critical
                TLS Web Server Authentication, TLS Web Client Authentication, E-mail Protection, Time Stamping, Microsoft Individual Code Signing, Microsoft Commercial Code Signing, Microsoft Trust List Signing, Microsoft Server Gated Crypto, Microsoft Encrypted File System, Netscape Server Gated Crypto
            X509v3 Key Usage: 
                Certificate Sign, CRL Sign
            X509v3 Subject Key Identifier: 
                E0:27:D5:DC:A3:0A:49:83:95:55:E4:B5:30:68:2A:C9:18:3E:8B:DD
    Signature Algorithm: sha1WithRSAEncryption
         91:9e:6c:a8:70:df:90:3d:bf:97:1a:14:c9:96:2b:90:04:17:
         0d:da:ad:63:52:d9:78:9a:4d:c7:41:66:86:ac:75:72:b3:80:
         8f:94:0c:9f:3e:4e:1f:ad:68:6c:14:6e:7a:55:f2:81:ed:26:
         56:6e:a2:12:42:c4:7e:8e:83:d5:8f:79:68:fc:90:7f:e2:6a:
         ff:61:ea:dd:04:98:55:73:92:2d:54:71:f1:d1:c2:7d:ec:a0:
         6a:d1:c5:92:fa:4a:1a:91:82:47:16:6f:e2:07:13:76:a5:fd:
         9a:e2:7b:9c:e6:42:24:99:3c:e7:18:09:9a:59:9b:1b:9a:2f:
         66:94
